; Function Attrs: nounwind uwtable
define dso_local zeroext i1 @int_icomp(ptr noundef readonly byval(%struct.Int) align 8 captures(none) %0, i64 noundef %1, i32 noundef %2) local_unnamed_addr #0 {
  %4 = getelementptr inbounds nuw i8, ptr %0, i64 16
  %5 = load i32, ptr %4, align 8
  %6 = add i32 %5, -3
  %7 = icmp ult i32 %6, 5
  br i1 %7, label %8, label %24

8:                                                ; preds = %3
  %.lobit.i.i = ashr i64 %1, 63
  %9 = load i64, ptr %0, align 8
  %10 = getelementptr inbounds nuw i8, ptr %0, i64 8
  %11 = load i64, ptr %10, align 8
  %.not.unshifted.i.i = xor i64 %9, %.lobit.i.i
  %.not.i.i = icmp sgt i64 %.not.unshifted.i.i, -1
  br i1 %.not.i.i, label %15, label %12

12:                                               ; preds = %8
  %13 = icmp slt i64 %9, 0
  %14 = select i1 %13, i32 -1, i32 1
  br label %int_signed_compare.exit

15:                                               ; preds = %8
  %16 = icmp ugt i64 %9, %.lobit.i.i
  br i1 %16, label %int_signed_compare.exit, label %17

17:                                               ; preds = %15
  %18 = icmp ult i64 %9, %.lobit.i.i
  br i1 %18, label %int_signed_compare.exit, label %19

19:                                               ; preds = %17
  %20 = icmp eq i64 %11, %1
  br i1 %20, label %int_signed_compare.exit, label %21

21:                                               ; preds = %19
  %22 = icmp ugt i64 %11, %1
  %23 = select i1 %22, i32 1, i32 -1
  br label %int_signed_compare.exit

24:                                               ; preds = %3
  %25 = load i64, ptr %0, align 8
  %26 = icmp ne i64 %25, 0
  %27 = icmp slt i64 %1, 0
  %or.cond.i = or i1 %27, %26
  br i1 %or.cond.i, label %int_signed_compare.exit, label %28

28:                                               ; preds = %24
  %29 = getelementptr inbounds nuw i8, ptr %0, i64 8
  %30 = load i64, ptr %29, align 8
  %31 = icmp ugt i64 %30, %1
  br i1 %31, label %int_signed_compare.exit, label %32

32:                                               ; preds = %28
  %33 = icmp samesign ult i64 %30, %1
  %..i = sext i1 %33 to i32
  br label %int_signed_compare.exit

int_signed_compare.exit:                          ; preds = %12, %15, %17, %19, %21, %24, %28, %32
  %.0.i = phi i32 [ 1, %28 ], [ 1, %24 ], [ %..i, %32 ], [ %14, %12 ], [ %23, %21 ], [ 1, %15 ], [ -1, %17 ], [ 0, %19 ]
  switch i32 %2, label %46 [
    i32 14, label %34
    i32 15, label %36
    i32 16, label %38
    i32 17, label %40
    i32 18, label %42
    i32 19, label %44
  ]

34:                                               ; preds = %int_signed_compare.exit
  %35 = icmp eq i32 %.0.i, 1
  br label %binary_op_matches_res.exit

36:                                               ; preds = %int_signed_compare.exit
  %37 = icmp ne i32 %.0.i, -1
  br label %binary_op_matches_res.exit

38:                                               ; preds = %int_signed_compare.exit
  %39 = icmp eq i32 %.0.i, -1
  br label %binary_op_matches_res.exit

40:                                               ; preds = %int_signed_compare.exit
  %41 = icmp ne i32 %.0.i, 1
  br label %binary_op_matches_res.exit

42:                                               ; preds = %int_signed_compare.exit
  %43 = icmp ne i32 %.0.i, 0
  br label %binary_op_matches_res.exit

44:                                               ; preds = %int_signed_compare.exit
  %45 = icmp eq i32 %.0.i, 0
  br label %binary_op_matches_res.exit

46:                                               ; preds = %int_signed_compare.exit
  tail call void (ptr, ...) @error_exit(ptr noundef nonnull @.str, ptr noundef nonnull @.str.1, ptr noundef nonnull @__func__.binary_op_matches_res, ptr noundef nonnull @.str.2, i32 noundef 598) #20
  unreachable

binary_op_matches_res.exit:                       ; preds = %34, %36, %38, %40, %42, %44
  %.0.i2 = phi i1 [ %45, %44 ], [ %43, %42 ], [ %41, %40 ], [ %39, %38 ], [ %37, %36 ], [ %35, %34 ]
  ret i1 %.0.i2
}